target datalayout = "e-m:e-p270:32:32-p271:32:32-p272:64:64-i64:64-i128:128-f80:128-n8:16:32:64-S128"
target triple = "x86_64-unknown-linux-gnu"

%struct.QIOChannelWebsock = type { %struct.QIOChannel, ptr, %struct.Buffer, %struct.Buffer, %struct.Buffer, i64, i64, %union.QIOChannelWebsockMask, i32, ptr, i32, i8 }
%struct.QIOChannel = type { %struct.Object, i32, ptr, ptr, ptr, ptr, ptr, i8 }
%struct.Object = type { ptr, ptr, ptr, i32, ptr }
%struct.Buffer = type { ptr, i64, i64, i64, ptr }
%union.QIOChannelWebsockMask = type { i32 }
%struct.iovec = type { ptr, i64 }

@.str = private unnamed_addr constant [20 x i8] c"qio-channel-websock\00", align 1
@.str.1 = private unnamed_addr constant [107 x i8] c"/home/dtcxzyw/WorkSpace/Projects/compilers/llvm-opt-benchmark/bench/qemu/qemu/include/io/channel-websock.h\00", align 1
@__func__.QIO_CHANNEL_WEBSOCK = private unnamed_addr constant [20 x i8] c"QIO_CHANNEL_WEBSOCK\00", align 1

; Function Attrs: nounwind sspstrong uwtable
define internal void @qio_channel_websock_unset_watch(ptr noundef %ioc) #0 {
entry:
  %ioc.addr = alloca ptr, align 8
  store ptr %ioc, ptr %ioc.addr, align 8
  %0 = load ptr, ptr %ioc.addr, align 8
  %io_tag = getelementptr inbounds %struct.QIOChannelWebsock, ptr %0, i32 0, i32 8
  %1 = load i32, ptr %io_tag, align 4
  %tobool = icmp ne i32 %1, 0
  br i1 %tobool, label %if.then, label %if.end

if.then:                                          ; preds = %entry
  %2 = load ptr, ptr %ioc.addr, align 8
  %io_tag1 = getelementptr inbounds %struct.QIOChannelWebsock, ptr %2, i32 0, i32 8
  %3 = load i32, ptr %io_tag1, align 4
  %call = call i32 @g_source_remove(i32 noundef %3)
  %4 = load ptr, ptr %ioc.addr, align 8
  %io_tag2 = getelementptr inbounds %struct.QIOChannelWebsock, ptr %4, i32 0, i32 8
  store i32 0, ptr %io_tag2, align 4
  br label %if.end

if.end:                                           ; preds = %if.then, %entry
  ret void
}

; Function Attrs: nounwind sspstrong uwtable
define internal void @qio_channel_websock_set_watch(ptr noundef %ioc) #0 {
entry:
  %ioc.addr = alloca ptr, align 8
  %cond = alloca i32, align 4
  store ptr %ioc, ptr %ioc.addr, align 8
  store i32 0, ptr %cond, align 4
  %0 = load ptr, ptr %ioc.addr, align 8
  call void @qio_channel_websock_unset_watch(ptr noundef %0)
  %1 = load ptr, ptr %ioc.addr, align 8
  %io_err = getelementptr inbounds %struct.QIOChannelWebsock, ptr %1, i32 0, i32 9
  %2 = load ptr, ptr %io_err, align 8
  %tobool = icmp ne ptr %2, null
  br i1 %tobool, label %if.then, label %if.end

if.then:                                          ; preds = %entry
  br label %if.end12

if.end:                                           ; preds = %entry
  %3 = load ptr, ptr %ioc.addr, align 8
  %encoutput = getelementptr inbounds %struct.QIOChannelWebsock, ptr %3, i32 0, i32 3
  %offset = getelementptr inbounds %struct.Buffer, ptr %encoutput, i32 0, i32 2
  %4 = load i64, ptr %offset, align 8
  %tobool1 = icmp ne i64 %4, 0
  br i1 %tobool1, label %if.then2, label %if.end3

if.then2:                                         ; preds = %if.end
  %5 = load i32, ptr %cond, align 4
  %or = or i32 %5, 4
  store i32 %or, ptr %cond, align 4
  br label %if.end3

if.end3:                                          ; preds = %if.then2, %if.end
  %6 = load ptr, ptr %ioc.addr, align 8
  %encinput = getelementptr inbounds %struct.QIOChannelWebsock, ptr %6, i32 0, i32 2
  %offset4 = getelementptr inbounds %struct.Buffer, ptr %encinput, i32 0, i32 2
  %7 = load i64, ptr %offset4, align 8
  %cmp = icmp ult i64 %7, 8192
  br i1 %cmp, label %land.lhs.true, label %if.end8

land.lhs.true:                                    ; preds = %if.end3
  %8 = load ptr, ptr %ioc.addr, align 8
  %io_eof = getelementptr inbounds %struct.QIOChannelWebsock, ptr %8, i32 0, i32 10
  %9 = load i32, ptr %io_eof, align 8
  %tobool5 = icmp ne i32 %9, 0
  br i1 %tobool5, label %if.end8, label %if.then6

if.then6:                                         ; preds = %land.lhs.true
  %10 = load i32, ptr %cond, align 4
  %or7 = or i32 %10, 1
  store i32 %or7, ptr %cond, align 4
  br label %if.end8

if.end8:                                          ; preds = %if.then6, %land.lhs.true, %if.end3
  %11 = load i32, ptr %cond, align 4
  %tobool9 = icmp ne i32 %11, 0
  br i1 %tobool9, label %if.then10, label %if.end12

if.then10:                                        ; preds = %if.end8
  %12 = load ptr, ptr %ioc.addr, align 8
  %call = call ptr @object_ref(ptr noundef %12)
  %13 = load ptr, ptr %ioc.addr, align 8
  %master = getelementptr inbounds %struct.QIOChannelWebsock, ptr %13, i32 0, i32 1
  %14 = load ptr, ptr %master, align 8
  %15 = load i32, ptr %cond, align 4
  %16 = load ptr, ptr %ioc.addr, align 8
  %call11 = call i32 @qio_channel_add_watch(ptr noundef %14, i32 noundef %15, ptr noundef @qio_channel_websock_flush, ptr noundef %16, ptr noundef @qio_channel_websock_flush_free)
  %17 = load ptr, ptr %ioc.addr, align 8
  %io_tag = getelementptr inbounds %struct.QIOChannelWebsock, ptr %17, i32 0, i32 8
  store i32 %call11, ptr %io_tag, align 4
  br label %if.end12

if.end12:                                         ; preds = %if.then10, %if.end8, %if.then
  ret void
}

; Function Attrs: nounwind sspstrong uwtable
define internal ptr @QIO_CHANNEL_WEBSOCK(ptr noundef %obj) #0 {
entry:
  %obj.addr = alloca ptr, align 8
  store ptr %obj, ptr %obj.addr, align 8
  %0 = load ptr, ptr %obj.addr, align 8
  %call = call ptr @object_dynamic_cast_assert(ptr noundef %0, ptr noundef @.str, ptr noundef @.str.1, i32 noundef 30, ptr noundef @__func__.QIO_CHANNEL_WEBSOCK)
  ret ptr %call
}

; Function Attrs: nounwind sspstrong uwtable
define internal i64 @qio_channel_websock_readv(ptr noundef %ioc, ptr noundef %iov, i64 noundef %niov, ptr noundef %fds, ptr noundef %nfds, i32 noundef %flags, ptr noundef %errp) #0 {
entry:
  %retval = alloca i64, align 8
  %ioc.addr = alloca ptr, align 8
  %iov.addr = alloca ptr, align 8
  %niov.addr = alloca i64, align 8
  %fds.addr = alloca ptr, align 8
  %nfds.addr = alloca ptr, align 8
  %flags.addr = alloca i32, align 4
  %errp.addr = alloca ptr, align 8
  %wioc = alloca ptr, align 8
  %i = alloca i64, align 8
  %got = alloca i64, align 8
  %ret = alloca i64, align 8
  %want = alloca i64, align 8
  store ptr %ioc, ptr %ioc.addr, align 8
  store ptr %iov, ptr %iov.addr, align 8
  store i64 %niov, ptr %niov.addr, align 8
  store ptr %fds, ptr %fds.addr, align 8
  store ptr %nfds, ptr %nfds.addr, align 8
  store i32 %flags, ptr %flags.addr, align 4
  store ptr %errp, ptr %errp.addr, align 8
  %0 = load ptr, ptr %ioc.addr, align 8
  %call = call ptr @QIO_CHANNEL_WEBSOCK(ptr noundef %0)
  store ptr %call, ptr %wioc, align 8
  store i64 0, ptr %got, align 8
  %1 = load ptr, ptr %wioc, align 8
  %io_err = getelementptr inbounds %struct.QIOChannelWebsock, ptr %1, i32 0, i32 9
  %2 = load ptr, ptr %io_err, align 8
  %tobool = icmp ne ptr %2, null
  br i1 %tobool, label %if.then, label %if.end

if.then:                                          ; preds = %entry
  %3 = load ptr, ptr %errp.addr, align 8
  %4 = load ptr, ptr %wioc, align 8
  %io_err1 = getelementptr inbounds %struct.QIOChannelWebsock, ptr %4, i32 0, i32 9
  %5 = load ptr, ptr %io_err1, align 8
  %call2 = call ptr @error_copy(ptr noundef %5)
  call void @error_propagate(ptr noundef %3, ptr noundef %call2)
  store i64 -1, ptr %retval, align 8
  br label %return

if.end:                                           ; preds = %entry
  %6 = load ptr, ptr %wioc, align 8
  %rawinput = getelementptr inbounds %struct.QIOChannelWebsock, ptr %6, i32 0, i32 4
  %offset = getelementptr inbounds %struct.Buffer, ptr %rawinput, i32 0, i32 2
  %7 = load i64, ptr %offset, align 8
  %tobool3 = icmp ne i64 %7, 0
  br i1 %tobool3, label %if.end9, label %if.then4

if.then4:                                         ; preds = %if.end
  %8 = load ptr, ptr %ioc.addr, align 8
  %call5 = call ptr @QIO_CHANNEL_WEBSOCK(ptr noundef %8)
  %9 = load ptr, ptr %errp.addr, align 8
  %call6 = call i64 @qio_channel_websock_read_wire(ptr noundef %call5, ptr noundef %9)
  store i64 %call6, ptr %ret, align 8
  %10 = load i64, ptr %ret, align 8
  %cmp = icmp slt i64 %10, 0
  br i1 %cmp, label %if.then7, label %if.end8

if.then7:                                         ; preds = %if.then4
  %11 = load i64, ptr %ret, align 8
  store i64 %11, ptr %retval, align 8
  br label %return

if.end8:                                          ; preds = %if.then4
  br label %if.end9

if.end9:                                          ; preds = %if.end8, %if.end
  store i64 0, ptr %i, align 8
  br label %for.cond

for.cond:                                         ; preds = %for.inc, %if.end9
  %12 = load i64, ptr %i, align 8
  %13 = load i64, ptr %niov.addr, align 8
  %cmp10 = icmp ult i64 %12, %13
  br i1 %cmp10, label %for.body, label %for.end

for.body:                                         ; preds = %for.cond
  %14 = load ptr, ptr %iov.addr, align 8
  %15 = load i64, ptr %i, align 8
  %arrayidx = getelementptr %struct.iovec, ptr %14, i64 %15
  %iov_len = getelementptr inbounds %struct.iovec, ptr %arrayidx, i32 0, i32 1
  %16 = load i64, ptr %iov_len, align 8
  store i64 %16, ptr %want, align 8
  %17 = load i64, ptr %want, align 8
  %18 = load ptr, ptr %wioc, align 8
  %rawinput11 = getelementptr inbounds %struct.QIOChannelWebsock, ptr %18, i32 0, i32 4
  %offset12 = getelementptr inbounds %struct.Buffer, ptr %rawinput11, i32 0, i32 2
  %19 = load i64, ptr %offset12, align 8
  %20 = load i64, ptr %got, align 8
  %sub = sub i64 %19, %20
  %cmp13 = icmp ugt i64 %17, %sub
  br i1 %cmp13, label %if.then14, label %if.end18

if.then14:                                        ; preds = %for.body
  %21 = load ptr, ptr %wioc, align 8
  %rawinput15 = getelementptr inbounds %struct.QIOChannelWebsock, ptr %21, i32 0, i32 4
  %offset16 = getelementptr inbounds %struct.Buffer, ptr %rawinput15, i32 0, i32 2
  %22 = load i64, ptr %offset16, align 8
  %23 = load i64, ptr %got, align 8
  %sub17 = sub i64 %22, %23
  store i64 %sub17, ptr %want, align 8
  br label %if.end18

if.end18:                                         ; preds = %if.then14, %for.body
  %24 = load ptr, ptr %iov.addr, align 8
  %25 = load i64, ptr %i, align 8
  %arrayidx19 = getelementptr %struct.iovec, ptr %24, i64 %25
  %iov_base = getelementptr inbounds %struct.iovec, ptr %arrayidx19, i32 0, i32 0
  %26 = load ptr, ptr %iov_base, align 8
  %27 = load ptr, ptr %wioc, align 8
  %rawinput20 = getelementptr inbounds %struct.QIOChannelWebsock, ptr %27, i32 0, i32 4
  %buffer = getelementptr inbounds %struct.Buffer, ptr %rawinput20, i32 0, i32 4
  %28 = load ptr, ptr %buffer, align 8
  %29 = load i64, ptr %got, align 8
  %add.ptr = getelementptr i8, ptr %28, i64 %29
  %30 = load i64, ptr %want, align 8
  call void @llvm.memcpy.p0.p0.i64(ptr align 1 %26, ptr align 1 %add.ptr, i64 %30, i1 false)
  %31 = load i64, ptr %want, align 8
  %32 = load i64, ptr %got, align 8
  %add = add i64 %32, %31
  store i64 %add, ptr %got, align 8
  %33 = load i64, ptr %want, align 8
  %34 = load ptr, ptr %iov.addr, align 8
  %35 = load i64, ptr %i, align 8
  %arrayidx21 = getelementptr %struct.iovec, ptr %34, i64 %35
  %iov_len22 = getelementptr inbounds %struct.iovec, ptr %arrayidx21, i32 0, i32 1
  %36 = load i64, ptr %iov_len22, align 8
  %cmp23 = icmp ult i64 %33, %36
  br i1 %cmp23, label %if.then24, label %if.end25

if.then24:                                        ; preds = %if.end18
  br label %for.end

if.end25:                                         ; preds = %if.end18
  br label %for.inc

for.inc:                                          ; preds = %if.end25
  %37 = load i64, ptr %i, align 8
  %inc = add i64 %37, 1
  store i64 %inc, ptr %i, align 8
  br label %for.cond, !llvm.loop !11

for.end:                                          ; preds = %if.then24, %for.cond
  %38 = load ptr, ptr %wioc, align 8
  %rawinput26 = getelementptr inbounds %struct.QIOChannelWebsock, ptr %38, i32 0, i32 4
  %39 = load i64, ptr %got, align 8
  call void @buffer_advance(ptr noundef %rawinput26, i64 noundef %39)
  %40 = load ptr, ptr %wioc, align 8
  call void @qio_channel_websock_set_watch(ptr noundef %40)
  %41 = load i64, ptr %got, align 8
  store i64 %41, ptr %retval, align 8
  br label %return

return:                                           ; preds = %for.end, %if.then7, %if.then
  %42 = load i64, ptr %retval, align 8
  ret i64 %42
}