; Function Attrs: nounwind sspstrong uwtable
define internal i64 @qio_channel_websock_readv(ptr noundef %ioc, ptr noundef readonly captures(none) %iov, i64 noundef %niov, ptr readnone captures(none) %fds, ptr readnone captures(none) %nfds, i32 %flags, ptr noundef %errp) #0 {
entry:
  %call.i = tail call ptr @object_dynamic_cast_assert(ptr noundef %ioc, ptr noundef nonnull @.str, ptr noundef nonnull @.str.1, i32 noundef 30, ptr noundef nonnull @__func__.QIO_CHANNEL_WEBSOCK) #15
  %io_err = getelementptr inbounds nuw i8, ptr %call.i, i64 248
  %0 = load ptr, ptr %io_err, align 8
  %tobool.not = icmp eq ptr %0, null
  br i1 %tobool.not, label %if.end, label %if.then

if.then:                                          ; preds = %entry
  %call2 = tail call ptr @error_copy(ptr noundef nonnull %0) #15
  tail call void @error_propagate(ptr noundef %errp, ptr noundef %call2) #15
  br label %return

if.end:                                           ; preds = %entry
  %rawinput = getelementptr inbounds nuw i8, ptr %call.i, i64 184
  %offset = getelementptr inbounds nuw i8, ptr %call.i, i64 200
  %1 = load i64, ptr %offset, align 8
  %tobool3.not = icmp eq i64 %1, 0
  br i1 %tobool3.not, label %if.then4, label %if.end9

if.then4:                                         ; preds = %if.end
  %call.i26 = tail call ptr @object_dynamic_cast_assert(ptr noundef %ioc, ptr noundef nonnull @.str, ptr noundef nonnull @.str.1, i32 noundef 30, ptr noundef nonnull @__func__.QIO_CHANNEL_WEBSOCK) #15
  %call6 = tail call fastcc i64 @qio_channel_websock_read_wire(ptr noundef %call.i26, ptr noundef %errp)
  %cmp = icmp slt i64 %call6, 0
  br i1 %cmp, label %return, label %if.end9

if.end9:                                          ; preds = %if.then4, %if.end
  %cmp1028.not = icmp eq i64 %niov, 0
  br i1 %cmp1028.not, label %for.end, label %for.body.lr.ph

for.body.lr.ph:                                   ; preds = %if.end9
  %buffer = getelementptr inbounds nuw i8, ptr %call.i, i64 216
  br label %for.body

for.body:                                         ; preds = %for.body, %for.body.lr.ph
  %got.030 = phi i64 [ 0, %for.body.lr.ph ], [ %add, %for.body ]
  %i.029 = phi i64 [ 0, %for.body.lr.ph ], [ %inc, %for.body ]
  %arrayidx = getelementptr %struct.iovec, ptr %iov, i64 %i.029
  %iov_len = getelementptr inbounds nuw i8, ptr %arrayidx, i64 8
  %2 = load i64, ptr %iov_len, align 8
  %3 = load i64, ptr %offset, align 8
  %sub = sub i64 %3, %got.030
  %spec.select = tail call i64 @llvm.umin.i64(i64 %2, i64 %sub)
  %4 = load ptr, ptr %arrayidx, align 8
  %5 = load ptr, ptr %buffer, align 8
  %add.ptr = getelementptr i8, ptr %5, i64 %got.030
  tail call void @llvm.memcpy.p0.p0.i64(ptr align 1 %4, ptr align 1 %add.ptr, i64 %spec.select, i1 false)
  %add = add i64 %spec.select, %got.030
  %6 = load i64, ptr %iov_len, align 8
  %cmp23 = icmp ult i64 %spec.select, %6
  %inc = add nuw i64 %i.029, 1
  %exitcond.not = icmp eq i64 %inc, %niov
  %or.cond = select i1 %cmp23, i1 true, i1 %exitcond.not
  br i1 %or.cond, label %for.end, label %for.body, !llvm.loop !11

for.end:                                          ; preds = %for.body, %if.end9
  %got.1 = phi i64 [ 0, %if.end9 ], [ %add, %for.body ]
  tail call void @buffer_advance(ptr noundef nonnull %rawinput, i64 noundef %got.1) #15
  %io_tag.i.i = getelementptr inbounds nuw i8, ptr %call.i, i64 244
  %7 = load i32, ptr %io_tag.i.i, align 4
  %tobool.not.i.i = icmp eq i32 %7, 0
  br i1 %tobool.not.i.i, label %qio_channel_websock_unset_watch.exit.i, label %if.then.i.i

if.then.i.i:                                      ; preds = %for.end
  %call.i.i = tail call i32 @g_source_remove(i32 noundef %7) #15
  store i32 0, ptr %io_tag.i.i, align 4
  br label %qio_channel_websock_unset_watch.exit.i

qio_channel_websock_unset_watch.exit.i:           ; preds = %if.then.i.i, %for.end
  %8 = load ptr, ptr %io_err, align 8
  %tobool.not.i = icmp eq ptr %8, null
  br i1 %tobool.not.i, label %if.end.i, label %return

if.end.i:                                         ; preds = %qio_channel_websock_unset_watch.exit.i
  %offset.i = getelementptr inbounds nuw i8, ptr %call.i, i64 160
  %9 = load i64, ptr %offset.i, align 8
  %tobool1.not.i = icmp ne i64 %9, 0
  %offset4.i = getelementptr inbounds nuw i8, ptr %call.i, i64 120
  %10 = load i64, ptr %offset4.i, align 8
  %cmp.i = icmp ult i64 %10, 8192
  br i1 %cmp.i, label %land.lhs.true.i, label %if.end8.i

land.lhs.true.i:                                  ; preds = %if.end.i
  %spec.select.i = select i1 %tobool1.not.i, i32 4, i32 0
  %io_eof.i = getelementptr inbounds nuw i8, ptr %call.i, i64 256
  %11 = load i32, ptr %io_eof.i, align 8
  %tobool5.not.i = icmp eq i32 %11, 0
  %brmerge.i = select i1 %tobool5.not.i, i1 true, i1 %tobool1.not.i
  %or7.i = zext i1 %tobool5.not.i to i32
  %or7.mux.i = or disjoint i32 %spec.select.i, %or7.i
  br i1 %brmerge.i, label %if.then10.i, label %return

if.end8.i:                                        ; preds = %if.end.i
  br i1 %tobool1.not.i, label %if.then10.i, label %return

if.then10.i:                                      ; preds = %if.end8.i, %land.lhs.true.i
  %cond.115.i = phi i32 [ 4, %if.end8.i ], [ %or7.mux.i, %land.lhs.true.i ]
  %call.i27 = tail call ptr @object_ref(ptr noundef nonnull %call.i) #15
  %master.i = getelementptr inbounds nuw i8, ptr %call.i, i64 96
  %12 = load ptr, ptr %master.i, align 8
  %call11.i = tail call i32 @qio_channel_add_watch(ptr noundef %12, i32 noundef %cond.115.i, ptr noundef nonnull @qio_channel_websock_flush, ptr noundef nonnull %call.i, ptr noundef nonnull @qio_channel_websock_flush_free) #15
  store i32 %call11.i, ptr %io_tag.i.i, align 4
  br label %return

return:                                           ; preds = %if.then10.i, %if.end8.i, %land.lhs.true.i, %qio_channel_websock_unset_watch.exit.i, %if.then4, %if.then
  %retval.0 = phi i64 [ -1, %if.then ], [ %call6, %if.then4 ], [ %got.1, %qio_channel_websock_unset_watch.exit.i ], [ %got.1, %land.lhs.true.i ], [ %got.1, %if.end8.i ], [ %got.1, %if.then10.i ]
  ret i64 %retval.0
}